; Function Attrs: mustprogress uwtable
define hidden noundef zeroext i1 @_ZNK13proof_checker8match_opEPK4expriR10ptr_vectorIS0_E(ptr nocapture noundef nonnull readonly align 8 dereferenceable(156) %this, ptr noundef readonly %e, i32 noundef %k, ptr noundef nonnull align 8 dereferenceable(8) %terms) local_unnamed_addr #4 align 2 {
entry:
  %m_kind.i = getelementptr inbounds i8, ptr %e, i64 4
  %bf.load.i = load i32, ptr %m_kind.i, align 4
  %bf.clear.i = and i32 %bf.load.i, 65535
  %cmp = icmp eq i32 %bf.clear.i, 0
  br i1 %cmp, label %land.lhs.true, label %return

land.lhs.true:                                    ; preds = %entry
  %m_decl.i.i = getelementptr inbounds i8, ptr %e, i64 16
  %0 = load ptr, ptr %m_decl.i.i, align 8
  %m_info.i.i = getelementptr inbounds i8, ptr %0, i64 24
  %1 = load ptr, ptr %m_info.i.i, align 8
  %cmp.i.i = icmp eq ptr %1, null
  br i1 %cmp.i.i, label %return, label %_ZNK3app13get_family_idEv.exit

_ZNK3app13get_family_idEv.exit:                   ; preds = %land.lhs.true
  %2 = load i32, ptr %1, align 8
  %cmp5 = icmp eq i32 %2, 0
  br i1 %cmp5, label %_ZNK3app13get_decl_kindEv.exit, label %return

_ZNK3app13get_decl_kindEv.exit:                   ; preds = %_ZNK3app13get_family_idEv.exit
  %m_kind.i.i.i = getelementptr inbounds i8, ptr %1, i64 4
  %3 = load i32, ptr %m_kind.i.i.i, align 4
  %cmp9 = icmp eq i32 %3, %k
  br i1 %cmp9, label %if.then, label %return

if.then:                                          ; preds = %_ZNK3app13get_decl_kindEv.exit
  %m_num_args.i = getelementptr inbounds i8, ptr %e, i64 24
  %4 = load i32, ptr %m_num_args.i, align 8
  %idx.ext.i = zext i32 %4 to i64
  %add.ptr.i.idx = shl nuw nsw i64 %idx.ext.i, 3
  %5 = getelementptr i8, ptr %e, i64 %add.ptr.i.idx
  %add.ptr.i.ptr = getelementptr i8, ptr %5, i64 32
  %cmp13.not17 = icmp eq i32 %4, 0
  br i1 %cmp13.not17, label %return, label %for.body.preheader

for.body.preheader:                               ; preds = %if.then
  %m_args.i.ptr = getelementptr inbounds i8, ptr %e, i64 32
  br label %for.body

for.body:                                         ; preds = %for.body.preheader, %_ZN6vectorIP4exprLb0EjE9push_backERKS1_.exit
  %__begin2.018 = phi ptr [ %incdec.ptr, %_ZN6vectorIP4exprLb0EjE9push_backERKS1_.exit ], [ %m_args.i.ptr, %for.body.preheader ]
  %6 = load ptr, ptr %__begin2.018, align 8
  %7 = load ptr, ptr %terms, align 8
  %cmp.i = icmp eq ptr %7, null
  br i1 %cmp.i, label %if.then.i, label %lor.lhs.false.i

lor.lhs.false.i:                                  ; preds = %for.body
  %arrayidx.i = getelementptr inbounds i8, ptr %7, i64 -4
  %8 = load i32, ptr %arrayidx.i, align 4
  %arrayidx4.i = getelementptr inbounds i8, ptr %7, i64 -8
  %9 = load i32, ptr %arrayidx4.i, align 4
  %cmp5.i = icmp eq i32 %8, %9
  br i1 %cmp5.i, label %if.then.i, label %_ZN6vectorIP4exprLb0EjE9push_backERKS1_.exit

if.then.i:                                        ; preds = %lor.lhs.false.i, %for.body
  tail call void @_ZN6vectorIP4exprLb0EjE13expand_vectorEv(ptr noundef nonnull align 8 dereferenceable(8) %terms)
  %.pre.i = load ptr, ptr %terms, align 8
  %arrayidx8.phi.trans.insert.i = getelementptr inbounds i8, ptr %.pre.i, i64 -4
  %.pre1.i = load i32, ptr %arrayidx8.phi.trans.insert.i, align 4
  br label %_ZN6vectorIP4exprLb0EjE9push_backERKS1_.exit

_ZN6vectorIP4exprLb0EjE9push_backERKS1_.exit:     ; preds = %lor.lhs.false.i, %if.then.i
  %10 = phi i32 [ %.pre1.i, %if.then.i ], [ %8, %lor.lhs.false.i ]
  %11 = phi ptr [ %.pre.i, %if.then.i ], [ %7, %lor.lhs.false.i ]
  %idx.ext.i13 = zext i32 %10 to i64
  %add.ptr.i14 = getelementptr inbounds ptr, ptr %11, i64 %idx.ext.i13
  store ptr %6, ptr %add.ptr.i14, align 8
  %12 = load ptr, ptr %terms, align 8
  %arrayidx10.i = getelementptr inbounds i8, ptr %12, i64 -4
  %13 = load i32, ptr %arrayidx10.i, align 4
  %inc.i = add i32 %13, 1
  store i32 %inc.i, ptr %arrayidx10.i, align 4
  %incdec.ptr = getelementptr inbounds i8, ptr %__begin2.018, i64 8
  %cmp13.not = icmp eq ptr %incdec.ptr, %add.ptr.i.ptr
  br i1 %cmp13.not, label %return, label %for.body

return:                                           ; preds = %_ZN6vectorIP4exprLb0EjE9push_backERKS1_.exit, %if.then, %land.lhs.true, %entry, %_ZNK3app13get_family_idEv.exit, %_ZNK3app13get_decl_kindEv.exit
  %retval.0 = phi i1 [ false, %_ZNK3app13get_decl_kindEv.exit ], [ false, %_ZNK3app13get_family_idEv.exit ], [ false, %entry ], [ false, %land.lhs.true ], [ true, %if.then ], [ true, %_ZN6vectorIP4exprLb0EjE9push_backERKS1_.exit ]
  ret i1 %retval.0
}